target datalayout = "e-m:e-p270:32:32-p271:32:32-p272:64:64-i64:64-i128:128-f80:128-n8:16:32:64-S128"
target triple = "x86_64-pc-linux-gnu"

%struct.lexbor_str_t = type { ptr, i64 }

; Function Attrs: nounwind uwtable
define hidden ptr @lexbor_str_destroy(ptr noundef %0, ptr noundef %1, i1 noundef zeroext %2) #0 {
  %4 = alloca ptr, align 8
  %5 = alloca ptr, align 8
  %6 = alloca ptr, align 8
  %7 = alloca i8, align 1
  store ptr %0, ptr %5, align 8
  store ptr %1, ptr %6, align 8
  %8 = zext i1 %2 to i8
  store i8 %8, ptr %7, align 1
  %9 = load ptr, ptr %5, align 8
  %10 = icmp eq ptr %9, null
  br i1 %10, label %11, label %12

11:                                               ; preds = %3
  store ptr null, ptr %4, align 8
  br label %33

12:                                               ; preds = %3
  %13 = load ptr, ptr %5, align 8
  %14 = getelementptr inbounds %struct.lexbor_str_t, ptr %13, i32 0, i32 0
  %15 = load ptr, ptr %14, align 8
  %16 = icmp ne ptr %15, null
  br i1 %16, label %17, label %25

17:                                               ; preds = %12
  %18 = load ptr, ptr %6, align 8
  %19 = load ptr, ptr %5, align 8
  %20 = getelementptr inbounds %struct.lexbor_str_t, ptr %19, i32 0, i32 0
  %21 = load ptr, ptr %20, align 8
  %22 = call ptr @lexbor_mraw_free(ptr noundef %18, ptr noundef %21)
  %23 = load ptr, ptr %5, align 8
  %24 = getelementptr inbounds %struct.lexbor_str_t, ptr %23, i32 0, i32 0
  store ptr %22, ptr %24, align 8
  br label %25

25:                                               ; preds = %17, %12
  %26 = load i8, ptr %7, align 1
  %27 = trunc i8 %26 to i1
  br i1 %27, label %28, label %31

28:                                               ; preds = %25
  %29 = load ptr, ptr %5, align 8
  %30 = call ptr @lexbor_free(ptr noundef %29)
  store ptr %30, ptr %4, align 8
  br label %33

31:                                               ; preds = %25
  %32 = load ptr, ptr %5, align 8
  store ptr %32, ptr %4, align 8
  br label %33

33:                                               ; preds = %31, %28, %11
  %34 = load ptr, ptr %4, align 8
  ret ptr %34
}