; Function Attrs: nounwind uwtable
define hidden ptr @lexbor_str_destroy(ptr noundef %0, ptr noundef %1, i1 noundef zeroext %2) local_unnamed_addr #0 {
  %4 = icmp eq ptr %0, null
  br i1 %4, label %12, label %5

5:                                                ; preds = %3
  %6 = load ptr, ptr %0, align 8
  %.not = icmp eq ptr %6, null
  br i1 %.not, label %9, label %7

7:                                                ; preds = %5
  %8 = tail call ptr @lexbor_mraw_free(ptr noundef %1, ptr noundef nonnull %6) #15
  store ptr %8, ptr %0, align 8
  br label %9

9:                                                ; preds = %7, %5
  br i1 %2, label %10, label %12

10:                                               ; preds = %9
  %11 = tail call ptr @lexbor_free(ptr noundef nonnull %0) #15
  br label %12

12:                                               ; preds = %9, %3, %10
  %.0 = phi ptr [ %11, %10 ], [ null, %3 ], [ %0, %9 ]
  ret ptr %.0
}